target datalayout = "e-m:e-p270:32:32-p271:32:32-p272:64:64-i64:64-i128:128-f80:128-n8:16:32:64-S128"
target triple = "x86_64-pc-linux-gnu"

%struct.SDL_Keymap = type { ptr, ptr, i8, i8, i8, i8, i8 }

; Function Attrs: nounwind uwtable
define hidden void @SDL_DestroyKeymap(ptr noundef %0) #0 {
  %2 = alloca ptr, align 8
  store ptr %0, ptr %2, align 8
  %3 = load ptr, ptr %2, align 8
  %4 = icmp ne ptr %3, null
  br i1 %4, label %6, label %5

5:                                                ; preds = %1
  br label %14

6:                                                ; preds = %1
  %7 = load ptr, ptr %2, align 8
  %8 = getelementptr inbounds nuw %struct.SDL_Keymap, ptr %7, i32 0, i32 0
  %9 = load ptr, ptr %8, align 8
  call void @SDL_DestroyHashTable(ptr noundef %9)
  %10 = load ptr, ptr %2, align 8
  %11 = getelementptr inbounds nuw %struct.SDL_Keymap, ptr %10, i32 0, i32 1
  %12 = load ptr, ptr %11, align 8
  call void @SDL_DestroyHashTable(ptr noundef %12)
  %13 = load ptr, ptr %2, align 8
  call void @SDL_free_REAL(ptr noundef %13)
  br label %14

14:                                               ; preds = %6, %5
  ret void
}