; Function Attrs: nounwind uwtable
define hidden void @SDL_DestroyKeymap(ptr noundef %0) local_unnamed_addr #0 {
  %.not = icmp eq ptr %0, null
  br i1 %.not, label %6, label %2

2:                                                ; preds = %1
  %3 = load ptr, ptr %0, align 8
  tail call void @SDL_DestroyHashTable(ptr noundef %3) #5
  %4 = getelementptr inbounds nuw i8, ptr %0, i64 8
  %5 = load ptr, ptr %4, align 8
  tail call void @SDL_DestroyHashTable(ptr noundef %5) #5
  tail call void @SDL_free_REAL(ptr noundef nonnull %0) #5
  br label %6

6:                                                ; preds = %1, %2
  ret void
}